target datalayout = "e-m:e-p270:32:32-p271:32:32-p272:64:64-i64:64-i128:128-f80:128-n8:16:32:64-S128"
target triple = "x86_64-pc-linux-gnu"

%"struct.std::array" = type { [3 x i16] }
%"class.LIEF::MachO::DylibCommand" = type <{ %"class.LIEF::MachO::LoadCommand", %"class.std::__cxx11::basic_string", i32, i32, i32, [4 x i8] }>
%"class.LIEF::MachO::LoadCommand" = type { %"class.LIEF::Object", %"class.std::vector", i64, i32, i64 }
%"class.LIEF::Object" = type { ptr }
%"class.std::vector" = type { %"struct.std::_Vector_base" }
%"struct.std::_Vector_base" = type { %"struct.std::_Vector_base<unsigned char, std::allocator<unsigned char>>::_Vector_impl" }
%"struct.std::_Vector_base<unsigned char, std::allocator<unsigned char>>::_Vector_impl" = type { %"struct.std::_Vector_base<unsigned char, std::allocator<unsigned char>>::_Vector_impl_data" }
%"struct.std::_Vector_base<unsigned char, std::allocator<unsigned char>>::_Vector_impl_data" = type { ptr, ptr, ptr }
%"class.std::__cxx11::basic_string" = type { %"struct.std::__cxx11::basic_string<char>::_Alloc_hider", i64, %union.anon }
%"struct.std::__cxx11::basic_string<char>::_Alloc_hider" = type { ptr }
%union.anon = type { i64, [8 x i8] }
%"struct.std::_Setw" = type { i32 }

@.str = private unnamed_addr constant [4 x i8] c" - \00", align 1
@.str.1 = private unnamed_addr constant [2 x i8] c".\00", align 1

; Function Attrs: mustprogress nounwind uwtable
define linkonce_odr hidden noundef nonnull align 2 dereferenceable(2) ptr @_ZNSt14__array_traitsItLm3EE6_S_refERA3_Ktm(ptr noundef nonnull align 2 dereferenceable(6) %0, i64 noundef %1) #0 comdat align 2 {
  %3 = alloca ptr, align 8
  %4 = alloca i64, align 8
  store ptr %0, ptr %3, align 8
  store i64 %1, ptr %4, align 8
  %5 = load ptr, ptr %3, align 8
  %6 = load i64, ptr %4, align 8
  %7 = getelementptr inbounds [3 x i16], ptr %5, i64 0, i64 %6
  ret ptr %7
}

; Function Attrs: mustprogress nounwind uwtable
define i48 @_ZN4LIEF5MachO12DylibCommand11int2versionEj(i32 noundef %0) #0 align 2 {
  %2 = alloca %"struct.std::array", align 2
  %3 = alloca i32, align 4
  %4 = alloca i48, align 8
  store i32 %0, ptr %3, align 4
  %5 = getelementptr inbounds %"struct.std::array", ptr %2, i32 0, i32 0
  %6 = getelementptr inbounds [3 x i16], ptr %5, i64 0, i64 0
  %7 = load i32, ptr %3, align 4
  %8 = lshr i32 %7, 16
  %9 = trunc i32 %8 to i16
  store i16 %9, ptr %6, align 2
  %10 = getelementptr inbounds i16, ptr %6, i64 1
  %11 = load i32, ptr %3, align 4
  %12 = lshr i32 %11, 8
  %13 = and i32 %12, 255
  %14 = trunc i32 %13 to i16
  store i16 %14, ptr %10, align 2
  %15 = getelementptr inbounds i16, ptr %10, i64 1
  %16 = load i32, ptr %3, align 4
  %17 = and i32 %16, 255
  %18 = trunc i32 %17 to i16
  store i16 %18, ptr %15, align 2
  %19 = getelementptr inbounds %"struct.std::array", ptr %2, i32 0, i32 0
  call void @llvm.memcpy.p0.p0.i64(ptr align 8 %4, ptr align 2 %19, i64 6, i1 false)
  %20 = load i48, ptr %4, align 8
  ret i48 %20
}

; Function Attrs: mustprogress nounwind uwtable
define linkonce_odr hidden noundef nonnull align 2 dereferenceable(2) ptr @_ZNKSt5arrayItLm3EEixEm(ptr noundef nonnull align 2 dereferenceable(6) %0, i64 noundef %1) #0 comdat align 2 {
  %3 = alloca ptr, align 8
  %4 = alloca i64, align 8
  store ptr %0, ptr %3, align 8
  store i64 %1, ptr %4, align 8
  %5 = load ptr, ptr %3, align 8
  %6 = getelementptr inbounds %"struct.std::array", ptr %5, i32 0, i32 0
  %7 = load i64, ptr %4, align 8
  %8 = call noundef nonnull align 2 dereferenceable(2) ptr @_ZNSt14__array_traitsItLm3EE6_S_refERA3_Ktm(ptr noundef nonnull align 2 dereferenceable(6) %6, i64 noundef %7) #10
  ret ptr %8
}

; Function Attrs: mustprogress nounwind uwtable
define noundef i32 @_ZNK4LIEF5MachO12DylibCommand9timestampEv(ptr noundef nonnull align 8 dereferenceable(100) %0) #0 align 2 {
  %2 = alloca ptr, align 8
  store ptr %0, ptr %2, align 8
  %3 = load ptr, ptr %2, align 8
  %4 = getelementptr inbounds %"class.LIEF::MachO::DylibCommand", ptr %3, i32 0, i32 2
  %5 = load i32, ptr %4, align 8
  ret i32 %5
}

; Function Attrs: mustprogress nounwind uwtable
define noundef nonnull align 8 dereferenceable(32) ptr @_ZNK4LIEF5MachO12DylibCommand4nameB5cxx11Ev(ptr noundef nonnull align 8 dereferenceable(100) %0) #0 align 2 {
  %2 = alloca ptr, align 8
  store ptr %0, ptr %2, align 8
  %3 = load ptr, ptr %2, align 8
  %4 = getelementptr inbounds %"class.LIEF::MachO::DylibCommand", ptr %3, i32 0, i32 1
  ret ptr %4
}

; Function Attrs: mustprogress nounwind uwtable
define linkonce_odr i32 @_ZSt4setwi(i32 noundef %0) #0 comdat {
  %2 = alloca %"struct.std::_Setw", align 4
  %3 = alloca i32, align 4
  store i32 %0, ptr %3, align 4
  %4 = getelementptr inbounds %"struct.std::_Setw", ptr %2, i32 0, i32 0
  %5 = load i32, ptr %3, align 4
  store i32 %5, ptr %4, align 4
  %6 = getelementptr inbounds %"struct.std::_Setw", ptr %2, i32 0, i32 0
  %7 = load i32, ptr %6, align 4
  ret i32 %7
}

; Function Attrs: mustprogress nounwind uwtable
define i48 @_ZNK4LIEF5MachO12DylibCommand21compatibility_versionEv(ptr noundef nonnull align 8 dereferenceable(100) %0) #0 align 2 {
  %2 = alloca %"struct.std::array", align 2
  %3 = alloca ptr, align 8
  %4 = alloca i48, align 8
  %5 = alloca i48, align 8
  store ptr %0, ptr %3, align 8
  %6 = load ptr, ptr %3, align 8
  %7 = getelementptr inbounds %"class.LIEF::MachO::DylibCommand", ptr %6, i32 0, i32 4
  %8 = load i32, ptr %7, align 8
  %9 = call i48 @_ZN4LIEF5MachO12DylibCommand11int2versionEj(i32 noundef %8)
  %10 = getelementptr inbounds %"struct.std::array", ptr %2, i32 0, i32 0
  store i48 %9, ptr %4, align 8
  call void @llvm.memcpy.p0.p0.i64(ptr align 2 %10, ptr align 8 %4, i64 6, i1 false)
  %11 = getelementptr inbounds %"struct.std::array", ptr %2, i32 0, i32 0
  call void @llvm.memcpy.p0.p0.i64(ptr align 8 %5, ptr align 2 %11, i64 6, i1 false)
  %12 = load i48, ptr %5, align 8
  ret i48 %12
}

; Function Attrs: mustprogress nounwind uwtable
define i48 @_ZNK4LIEF5MachO12DylibCommand15current_versionEv(ptr noundef nonnull align 8 dereferenceable(100) %0) #0 align 2 {
  %2 = alloca %"struct.std::array", align 2
  %3 = alloca ptr, align 8
  %4 = alloca i48, align 8
  %5 = alloca i48, align 8
  store ptr %0, ptr %3, align 8
  %6 = load ptr, ptr %3, align 8
  %7 = getelementptr inbounds %"class.LIEF::MachO::DylibCommand", ptr %6, i32 0, i32 3
  %8 = load i32, ptr %7, align 4
  %9 = call i48 @_ZN4LIEF5MachO12DylibCommand11int2versionEj(i32 noundef %8)
  %10 = getelementptr inbounds %"struct.std::array", ptr %2, i32 0, i32 0
  store i48 %9, ptr %4, align 8
  call void @llvm.memcpy.p0.p0.i64(ptr align 2 %10, ptr align 8 %4, i64 6, i1 false)
  %11 = getelementptr inbounds %"struct.std::array", ptr %2, i32 0, i32 0
  call void @llvm.memcpy.p0.p0.i64(ptr align 8 %5, ptr align 2 %11, i64 6, i1 false)
  %12 = load i48, ptr %5, align 8
  ret i48 %12
}

; Function Attrs: mustprogress uwtable
define noundef nonnull align 8 dereferenceable(8) ptr @_ZNK4LIEF5MachO12DylibCommand5printERSo(ptr noundef nonnull align 8 dereferenceable(100) %0, ptr noundef nonnull align 8 dereferenceable(8) %1) unnamed_addr #2 align 2 {
  %3 = alloca ptr, align 8
  %4 = alloca ptr, align 8
  %5 = alloca ptr, align 8
  %6 = alloca %"struct.std::array", align 2
  %7 = alloca i48, align 8
  %8 = alloca ptr, align 8
  %9 = alloca %"struct.std::array", align 2
  %10 = alloca i48, align 8
  %11 = alloca %"struct.std::_Setw", align 4
  store ptr %0, ptr %3, align 8
  store ptr %1, ptr %4, align 8
  %12 = load ptr, ptr %3, align 8
  %13 = call i48 @_ZNK4LIEF5MachO12DylibCommand15current_versionEv(ptr noundef nonnull align 8 dereferenceable(100) %12)
  %14 = getelementptr inbounds %"struct.std::array", ptr %6, i32 0, i32 0
  store i48 %13, ptr %7, align 8
  call void @llvm.memcpy.p0.p0.i64(ptr align 2 %14, ptr align 8 %7, i64 6, i1 false)
  store ptr %6, ptr %5, align 8
  %15 = call i48 @_ZNK4LIEF5MachO12DylibCommand21compatibility_versionEv(ptr noundef nonnull align 8 dereferenceable(100) %12)
  %16 = getelementptr inbounds %"struct.std::array", ptr %9, i32 0, i32 0
  store i48 %15, ptr %10, align 8
  call void @llvm.memcpy.p0.p0.i64(ptr align 2 %16, ptr align 8 %10, i64 6, i1 false)
  store ptr %9, ptr %8, align 8
  %17 = load ptr, ptr %4, align 8
  %18 = call noundef nonnull align 8 dereferenceable(8) ptr @_ZNK4LIEF5MachO11LoadCommand5printERSo(ptr noundef nonnull align 8 dereferenceable(56) %12, ptr noundef nonnull align 8 dereferenceable(8) %17)
  %19 = load ptr, ptr %4, align 8
  %20 = call noundef nonnull align 8 dereferenceable(8) ptr @_ZNSolsEPFRSt8ios_baseS0_E(ptr noundef nonnull align 8 dereferenceable(8) %19, ptr noundef @_ZSt3hexRSt8ios_base)
  %21 = load ptr, ptr %4, align 8
  %22 = call noundef nonnull align 8 dereferenceable(8) ptr @_ZNSolsEPFRSt8ios_baseS0_E(ptr noundef nonnull align 8 dereferenceable(8) %21, ptr noundef @_ZSt4leftRSt8ios_base)
  %23 = call i32 @_ZSt4setwi(i32 noundef 35)
  %24 = getelementptr inbounds %"struct.std::_Setw", ptr %11, i32 0, i32 0
  store i32 %23, ptr %24, align 4
  %25 = getelementptr inbounds %"struct.std::_Setw", ptr %11, i32 0, i32 0
  %26 = load i32, ptr %25, align 4
  %27 = call noundef nonnull align 8 dereferenceable(8) ptr @_ZStlsIcSt11char_traitsIcEERSt13basic_ostreamIT_T0_ES6_St5_Setw(ptr noundef nonnull align 8 dereferenceable(8) %22, i32 %26)
  %28 = call noundef nonnull align 8 dereferenceable(32) ptr @_ZNK4LIEF5MachO12DylibCommand4nameB5cxx11Ev(ptr noundef nonnull align 8 dereferenceable(100) %12)
  %29 = call noundef nonnull align 8 dereferenceable(8) ptr @_ZStlsIcSt11char_traitsIcESaIcEERSt13basic_ostreamIT_T0_ES7_RKNSt7__cxx1112basic_stringIS4_S5_T1_EE(ptr noundef nonnull align 8 dereferenceable(8) %27, ptr noundef nonnull align 8 dereferenceable(32) %28)
  %30 = call noundef i32 @_ZNK4LIEF5MachO12DylibCommand9timestampEv(ptr noundef nonnull align 8 dereferenceable(100) %12)
  %31 = call noundef nonnull align 8 dereferenceable(8) ptr @_ZNSolsEj(ptr noundef nonnull align 8 dereferenceable(8) %29, i32 noundef %30)
  %32 = call noundef nonnull align 8 dereferenceable(8) ptr @_ZStlsISt11char_traitsIcEERSt13basic_ostreamIcT_ES5_PKc(ptr noundef nonnull align 8 dereferenceable(8) %31, ptr noundef @.str)
  %33 = call noundef nonnull align 8 dereferenceable(8) ptr @_ZNSolsEPFRSt8ios_baseS0_E(ptr noundef nonnull align 8 dereferenceable(8) %32, ptr noundef @_ZSt3decRSt8ios_base)
  %34 = load ptr, ptr %5, align 8
  %35 = call noundef nonnull align 2 dereferenceable(2) ptr @_ZNKSt5arrayItLm3EEixEm(ptr noundef nonnull align 2 dereferenceable(6) %34, i64 noundef 0) #10
  %36 = load i16, ptr %35, align 2
  %37 = call noundef nonnull align 8 dereferenceable(8) ptr @_ZNSolsEt(ptr noundef nonnull align 8 dereferenceable(8) %33, i16 noundef zeroext %36)
  %38 = call noundef nonnull align 8 dereferenceable(8) ptr @_ZStlsISt11char_traitsIcEERSt13basic_ostreamIcT_ES5_PKc(ptr noundef nonnull align 8 dereferenceable(8) %37, ptr noundef @.str.1)
  %39 = load ptr, ptr %5, align 8
  %40 = call noundef nonnull align 2 dereferenceable(2) ptr @_ZNKSt5arrayItLm3EEixEm(ptr noundef nonnull align 2 dereferenceable(6) %39, i64 noundef 1) #10
  %41 = load i16, ptr %40, align 2
  %42 = call noundef nonnull align 8 dereferenceable(8) ptr @_ZNSolsEt(ptr noundef nonnull align 8 dereferenceable(8) %38, i16 noundef zeroext %41)
  %43 = call noundef nonnull align 8 dereferenceable(8) ptr @_ZStlsISt11char_traitsIcEERSt13basic_ostreamIcT_ES5_PKc(ptr noundef nonnull align 8 dereferenceable(8) %42, ptr noundef @.str.1)
  %44 = load ptr, ptr %5, align 8
  %45 = call noundef nonnull align 2 dereferenceable(2) ptr @_ZNKSt5arrayItLm3EEixEm(ptr noundef nonnull align 2 dereferenceable(6) %44, i64 noundef 2) #10
  %46 = load i16, ptr %45, align 2
  %47 = call noundef nonnull align 8 dereferenceable(8) ptr @_ZNSolsEt(ptr noundef nonnull align 8 dereferenceable(8) %43, i16 noundef zeroext %46)
  %48 = call noundef nonnull align 8 dereferenceable(8) ptr @_ZStlsISt11char_traitsIcEERSt13basic_ostreamIcT_ES5_PKc(ptr noundef nonnull align 8 dereferenceable(8) %47, ptr noundef @.str)
  %49 = load ptr, ptr %8, align 8
  %50 = call noundef nonnull align 2 dereferenceable(2) ptr @_ZNKSt5arrayItLm3EEixEm(ptr noundef nonnull align 2 dereferenceable(6) %49, i64 noundef 0) #10
  %51 = load i16, ptr %50, align 2
  %52 = call noundef nonnull align 8 dereferenceable(8) ptr @_ZNSolsEt(ptr noundef nonnull align 8 dereferenceable(8) %48, i16 noundef zeroext %51)
  %53 = call noundef nonnull align 8 dereferenceable(8) ptr @_ZStlsISt11char_traitsIcEERSt13basic_ostreamIcT_ES5_PKc(ptr noundef nonnull align 8 dereferenceable(8) %52, ptr noundef @.str.1)
  %54 = load ptr, ptr %8, align 8
  %55 = call noundef nonnull align 2 dereferenceable(2) ptr @_ZNKSt5arrayItLm3EEixEm(ptr noundef nonnull align 2 dereferenceable(6) %54, i64 noundef 1) #10
  %56 = load i16, ptr %55, align 2
  %57 = call noundef nonnull align 8 dereferenceable(8) ptr @_ZNSolsEt(ptr noundef nonnull align 8 dereferenceable(8) %53, i16 noundef zeroext %56)
  %58 = call noundef nonnull align 8 dereferenceable(8) ptr @_ZStlsISt11char_traitsIcEERSt13basic_ostreamIcT_ES5_PKc(ptr noundef nonnull align 8 dereferenceable(8) %57, ptr noundef @.str.1)
  %59 = load ptr, ptr %8, align 8
  %60 = call noundef nonnull align 2 dereferenceable(2) ptr @_ZNKSt5arrayItLm3EEixEm(ptr noundef nonnull align 2 dereferenceable(6) %59, i64 noundef 2) #10
  %61 = load i16, ptr %60, align 2
  %62 = call noundef nonnull align 8 dereferenceable(8) ptr @_ZNSolsEt(ptr noundef nonnull align 8 dereferenceable(8) %58, i16 noundef zeroext %61)
  %63 = load ptr, ptr %4, align 8
  ret ptr %63
}